; Function Attrs: mustprogress uwtable
define void @_ZN32pxrInternal_v0_24__pxrReserved__9HdPerfLog10ResetCacheERKNS_7TfTokenE(ptr noundef nonnull align 8 dereferenceable(184) %0, ptr noundef nonnull align 8 dereferenceable(8) %1) local_unnamed_addr #0 align 2 personality ptr @__gxx_personality_v0 {
  %3 = getelementptr inbounds nuw i8, ptr %0, i64 136
  %4 = load i8, ptr %3, align 8
  %5 = trunc i8 %4 to i1
  br i1 %5, label %6, label %12

6:                                                ; preds = %2
  %7 = getelementptr inbounds nuw i8, ptr %0, i64 144
  %8 = tail call noundef i32 @pthread_mutex_lock(ptr noundef nonnull %7) #19
  %.not.i.i = icmp eq i32 %8, 0
  br i1 %.not.i.i, label %_ZNSt10lock_guardISt5mutexEC2ERS0_.exit, label %9

9:                                                ; preds = %6
  tail call void @_ZSt20__throw_system_errori(i32 noundef %8) #22
  unreachable

_ZNSt10lock_guardISt5mutexEC2ERS0_.exit:          ; preds = %6
  %10 = invoke noundef nonnull align 8 dereferenceable(16) ptr @_ZNSt8__detail9_Map_baseIN32pxrInternal_v0_24__pxrReserved__7TfTokenESt4pairIKS2_NS1_9HdPerfLog11_CacheEntryEESaIS7_ENS_10_Select1stESt8equal_toIS2_ENS2_11HashFunctorENS_18_Mod_range_hashingENS_20_Default_ranged_hashENS_20_Prime_rehash_policyENS_17_Hashtable_traitsILb1ELb0ELb1EEELb1EEixERS4_(ptr noundef nonnull align 1 dereferenceable(1) %0, ptr noundef nonnull align 8 dereferenceable(8) %1)
          to label %_ZN32pxrInternal_v0_24__pxrReserved__9TfHashMapINS_7TfTokenENS_9HdPerfLog11_CacheEntryENS1_11HashFunctorESt8equal_toIS1_ESaISt4pairIKS1_S3_EEEixERS8_.exit unwind label %13

_ZN32pxrInternal_v0_24__pxrReserved__9TfHashMapINS_7TfTokenENS_9HdPerfLog11_CacheEntryENS1_11HashFunctorESt8equal_toIS1_ESaISt4pairIKS1_S3_EEEixERS8_.exit: ; preds = %_ZNSt10lock_guardISt5mutexEC2ERS0_.exit
  tail call void @llvm.memset.p0.i64(ptr noundef nonnull align 8 dereferenceable(16) %10, i8 0, i64 16, i1 false)
  %11 = tail call noundef i32 @pthread_mutex_unlock(ptr noundef nonnull %7) #19
  br label %12

12:                                               ; preds = %2, %_ZN32pxrInternal_v0_24__pxrReserved__9TfHashMapINS_7TfTokenENS_9HdPerfLog11_CacheEntryENS1_11HashFunctorESt8equal_toIS1_ESaISt4pairIKS1_S3_EEEixERS8_.exit
  ret void

13:                                               ; preds = %_ZNSt10lock_guardISt5mutexEC2ERS0_.exit
  %14 = landingpad { ptr, i32 }
          cleanup
  %15 = tail call noundef i32 @pthread_mutex_unlock(ptr noundef nonnull %7) #19
  resume { ptr, i32 } %14
}